; ModuleID = 'source-C-CXX/21/744.c'
source_filename = "source-C-CXX/21/744.c"
target datalayout = "e-m:e-p270:32:32-p271:32:32-p272:64:64-i64:64-f80:128-n8:16:32:64-S128"
target triple = "x86_64-pc-linux-gnu"

@.str = private unnamed_addr constant [5 x i8] c"%d%c\00", align 1
@.str.1 = private unnamed_addr constant [3 x i8] c"No\00", align 1
@.str.2 = private unnamed_addr constant [3 x i8] c"%d\00", align 1

; Function Attrs: nofree nounwind sspstrong uwtable
define dso_local i32 @main() local_unnamed_addr #0 {
  %1 = alloca i32, align 4
  %2 = alloca i32, align 4
  %3 = alloca i8, align 1
  %4 = bitcast i32* %1 to i8*
  call void @llvm.lifetime.start.p0i8(i64 4, i8* nonnull %4) #3
  %5 = bitcast i32* %2 to i8*
  call void @llvm.lifetime.start.p0i8(i64 4, i8* nonnull %5) #3
  call void @llvm.lifetime.start.p0i8(i64 1, i8* nonnull %3) #3
  %6 = call i32 (i8*, ...) @__isoc99_scanf(i8* getelementptr inbounds ([5 x i8], [5 x i8]* @.str, i64 0, i64 0), i32* nonnull %2, i8* nonnull %3)
  %7 = load i8, i8* %3, align 1, !tbaa !5
  %8 = icmp eq i8 %7, 44
  br i1 %8, label %11, label %9

9:                                                ; preds = %0
  %10 = call i32 (i8*, ...) @printf(i8* nonnull dereferenceable(1) getelementptr inbounds ([3 x i8], [3 x i8]* @.str.1, i64 0, i64 0))
  br label %38

11:                                               ; preds = %0, %23
  %12 = phi i32 [ %25, %23 ], [ 0, %0 ]
  %13 = call i32 (i8*, ...) @__isoc99_scanf(i8* getelementptr inbounds ([5 x i8], [5 x i8]* @.str, i64 0, i64 0), i32* nonnull %1, i8* nonnull %3)
  %14 = load i32, i32* %1, align 4, !tbaa !8
  %15 = load i32, i32* %2, align 4, !tbaa !8
  %16 = icmp sgt i32 %14, %15
  br i1 %16, label %17, label %18

17:                                               ; preds = %11
  store i32 %14, i32* %2, align 4, !tbaa !8
  br label %23

18:                                               ; preds = %11
  %19 = icmp slt i32 %12, %14
  %20 = icmp slt i32 %14, %15
  %21 = select i1 %19, i1 %20, i1 false
  %22 = select i1 %21, i32 %14, i32 %12
  br label %23

23:                                               ; preds = %18, %17
  %24 = phi i32 [ %14, %17 ], [ %15, %18 ]
  %25 = phi i32 [ %15, %17 ], [ %22, %18 ]
  %26 = load i8, i8* %3, align 1, !tbaa !5
  %27 = icmp eq i8 %26, 44
  br i1 %27, label %11, label %28, !llvm.loop !10

28:                                               ; preds = %23
  %29 = icmp eq i32 %25, 0
  br i1 %29, label %30, label %32

30:                                               ; preds = %28
  %31 = call i32 (i8*, ...) @printf(i8* nonnull dereferenceable(1) getelementptr inbounds ([3 x i8], [3 x i8]* @.str.1, i64 0, i64 0))
  br label %38

32:                                               ; preds = %28
  %33 = icmp eq i32 %24, %25
  br i1 %33, label %36, label %34

34:                                               ; preds = %32
  %35 = call i32 (i8*, ...) @printf(i8* nonnull dereferenceable(1) getelementptr inbounds ([3 x i8], [3 x i8]* @.str.2, i64 0, i64 0), i32 %25)
  br label %38

36:                                               ; preds = %32
  %37 = call i32 (i8*, ...) @printf(i8* nonnull dereferenceable(1) getelementptr inbounds ([3 x i8], [3 x i8]* @.str.1, i64 0, i64 0))
  br label %38

38:                                               ; preds = %30, %36, %34, %9
  call void @llvm.lifetime.end.p0i8(i64 1, i8* nonnull %3) #3
  call void @llvm.lifetime.end.p0i8(i64 4, i8* nonnull %5) #3
  call void @llvm.lifetime.end.p0i8(i64 4, i8* nonnull %4) #3
  ret i32 0
}

; Function Attrs: argmemonly mustprogress nofree nosync nounwind willreturn
declare void @llvm.lifetime.start.p0i8(i64 immarg, i8* nocapture) #1

; Function Attrs: nofree nounwind
declare noundef i32 @__isoc99_scanf(i8* nocapture noundef readonly, ...) local_unnamed_addr #2

; Function Attrs: nofree nounwind
declare noundef i32 @printf(i8* nocapture noundef readonly, ...) local_unnamed_addr #2

; Function Attrs: argmemonly mustprogress nofree nosync nounwind willreturn
declare void @llvm.lifetime.end.p0i8(i64 immarg, i8* nocapture) #1


!llvm.module.flags = !{!0, !1, !2, !3}
!llvm.ident = !{!4}

!0 = !{i32 1, !"wchar_size", i32 4}
!1 = !{i32 7, !"PIC Level", i32 2}
!2 = !{i32 7, !"PIE Level", i32 2}
!3 = !{i32 7, !"uwtable", i32 1}
!4 = !{!"clang version 13.0.0"}
!5 = !{!6, !6, i64 0}
!6 = !{!"omnipotent char", !7, i64 0}
!7 = !{!"Simple C/C++ TBAA"}
!8 = !{!9, !9, i64 0}
!9 = !{!"int", !6, i64 0}
!10 = distinct !{!10, !11}
!11 = !{!"llvm.loop.mustprogress"}
